target datalayout = "e-m:e-p270:32:32-p271:32:32-p272:64:64-i64:64-i128:128-f80:128-n8:16:32:64-S128"
target triple = "x86_64-pc-linux-gnu"

%struct._cms_io_handler = type { ptr, ptr, i32, i32, [256 x i8], ptr, ptr, ptr, ptr, ptr }
%struct.FILEMEM = type { ptr, i32, i32, i32 }

@.str.24 = private unnamed_addr constant [41 x i8] c"Too few data; probably corrupted profile\00", align 1

; Function Attrs: nounwind uwtable
define internal i32 @MemorySeek(ptr noundef %0, i32 noundef %1) #0 {
  %3 = alloca i32, align 4
  %4 = alloca ptr, align 8
  %5 = alloca i32, align 4
  %6 = alloca ptr, align 8
  store ptr %0, ptr %4, align 8
  store i32 %1, ptr %5, align 4
  %7 = load ptr, ptr %4, align 8
  %8 = getelementptr inbounds %struct._cms_io_handler, ptr %7, i32 0, i32 0
  %9 = load ptr, ptr %8, align 8
  store ptr %9, ptr %6, align 8
  %10 = load i32, ptr %5, align 4
  %11 = load ptr, ptr %6, align 8
  %12 = getelementptr inbounds %struct.FILEMEM, ptr %11, i32 0, i32 1
  %13 = load i32, ptr %12, align 8
  %14 = icmp ugt i32 %10, %13
  br i1 %14, label %15, label %19

15:                                               ; preds = %2
  %16 = load ptr, ptr %4, align 8
  %17 = getelementptr inbounds %struct._cms_io_handler, ptr %16, i32 0, i32 1
  %18 = load ptr, ptr %17, align 8
  call void (ptr, i32, ptr, ...) @cmsSignalError(ptr noundef %18, i32 noundef 6, ptr noundef @.str.24)
  store i32 0, ptr %3, align 4
  br label %23

19:                                               ; preds = %2
  %20 = load i32, ptr %5, align 4
  %21 = load ptr, ptr %6, align 8
  %22 = getelementptr inbounds %struct.FILEMEM, ptr %21, i32 0, i32 2
  store i32 %20, ptr %22, align 4
  store i32 1, ptr %3, align 4
  br label %23

23:                                               ; preds = %19, %15
  %24 = load i32, ptr %3, align 4
  ret i32 %24
}