; Function Attrs: nounwind uwtable
define internal range(i32 0, 2) i32 @MemorySeek(ptr nocapture noundef readonly %0, i32 noundef %1) #0 {
  %3 = load ptr, ptr %0, align 8
  %4 = getelementptr inbounds i8, ptr %3, i64 8
  %5 = load i32, ptr %4, align 8
  %6 = icmp ult i32 %5, %1
  br i1 %6, label %7, label %10

7:                                                ; preds = %2
  %8 = getelementptr inbounds i8, ptr %0, i64 8
  %9 = load ptr, ptr %8, align 8
  tail call void (ptr, i32, ptr, ...) @cmsSignalError(ptr noundef %9, i32 noundef 6, ptr noundef nonnull @.str.24) #19
  br label %12

10:                                               ; preds = %2
  %11 = getelementptr inbounds i8, ptr %3, i64 12
  store i32 %1, ptr %11, align 4
  br label %12

12:                                               ; preds = %10, %7
  %.0 = phi i32 [ 0, %7 ], [ 1, %10 ]
  ret i32 %.0
}